Certificate:
    Data:
        Version: 3 (0x2)
        Serial Number:
            15:04:15:ca:9b:69:d0:3d:c3:ea:44:6e:7c:2e:a0:c3
        Signature Algorithm: sha256WithRSAEncryption
        Issuer: CN=sany
        Validity
            Not Before: Sep 19 08:25:03 2024 GMT
            Not After : Sep  4 08:25:03 2027 GMT
        Subject: CN=client3
        Subject Public Key Info:
            Public Key Algorithm: rsaEncryption
                RSA Public-Key: (4096 bit)
                Modulus:
                    00:c6:3e:1e:42:49:b5:47:c4:9a:95:27:98:a6:45:
                    3d:9c:99:e5:59:da:e9:a4:d4:cf:34:29:f8:43:62:
                    f2:3d:79:67:54:ca:64:b8:93:8e:00:ef:a7:bd:60:
                    8d:c3:e1:ab:56:4b:7a:08:08:df:61:6e:23:da:da:
                    d6:90:b2:b0:53:b1:39:b0:97:b2:ee:72:2a:bd:2b:
                    58:a9:63:97:0f:07:e0:10:ab:34:88:e6:c5:61:56:
                    8d:55:74:ee:b1:72:2a:48:64:49:80:c5:96:d2:ca:
                    72:33:91:78:f7:46:bf:da:b4:e4:d1:66:4a:6f:e4:
                    e3:bd:5a:28:c0:d3:4a:4d:4c:b6:5d:a7:36:33:41:
                    16:e1:dc:f1:c7:65:00:1f:bb:29:03:15:10:19:26:
                    dc:4d:87:97:26:d9:b2:34:5c:aa:3e:c0:4c:b5:09:
                    a2:7b:bf:8b:b4:5b:57:eb:d9:e4:d0:14:8e:d1:95:
                    51:5e:2a:4e:7d:0b:1c:d2:bb:23:57:05:d4:19:12:
                    b1:9c:19:ee:63:8b:41:32:ca:a5:f1:75:8b:28:6f:
                    59:5a:31:15:fe:5c:16:2c:d0:ab:a5:b4:16:73:20:
                    86:bf:92:ee:d8:88:b5:0b:36:d1:43:39:2d:81:07:
                    07:05:8a:f3:29:c9:cc:f1:b6:f5:6a:6e:c7:fd:43:
                    0d:61:d6:43:ae:61:f0:f2:a6:a3:cd:1c:67:f4:82:
                    78:b1:34:d8:e9:11:e0:49:31:08:d9:69:30:7d:80:
                    25:ad:60:1a:fc:62:df:06:36:f4:81:63:60:5a:b1:
                    0f:1e:ee:c0:a6:7d:3b:74:38:82:ea:b0:e0:19:cc:
                    ad:29:73:09:fe:c8:b7:ef:dd:f3:32:bc:ac:17:83:
                    02:b3:24:dc:ae:97:07:61:37:ff:ef:d3:bb:75:d2:
                    6f:db:eb:94:14:cb:20:59:f1:7d:4f:fd:45:e4:0b:
                    37:f6:a1:26:7c:73:09:49:ab:10:32:15:b3:b6:2f:
                    84:b9:32:5f:ac:21:3d:a5:da:19:1c:e7:e1:0c:f9:
                    4c:9d:49:16:c2:a5:da:e0:e1:5b:92:33:1c:f4:56:
                    9d:99:e8:06:1d:6a:0b:98:2c:ea:9d:87:f2:f5:27:
                    69:c0:91:16:05:fe:21:18:0f:78:f9:dc:da:48:3f:
                    e4:0b:bd:22:e2:cb:0f:18:05:22:57:d7:df:f1:63:
                    c7:3e:cb:08:97:65:92:82:dc:a2:00:5c:65:86:aa:
                    94:58:24:a3:07:fa:a4:0c:a2:50:23:2a:1f:2d:58:
                    28:65:9b:93:e7:57:ed:00:be:75:e4:2a:0e:fe:78:
                    28:b0:46:87:47:93:e4:3d:e2:56:36:6f:3e:ee:f6:
                    01:e9:a5
                Exponent: 65537 (0x10001)
        X509v3 extensions:
            X509v3 Basic Constraints: 
                CA:FALSE
            X509v3 Subject Key Identifier: 
                E0:3E:69:D1:A0:6F:ED:FA:93:E8:DA:6D:E7:04:26:3B:61:73:AB:8E
            X509v3 Authority Key Identifier: 
                keyid:D1:D9:1A:BC:53:4C:A4:25:A7:7B:35:62:73:B0:DC:F0:A0:3C:21:50
                DirName:/CN=sany
                serial:19:6F:D2:73:8B:01:1C:FE:CC:22:5C:09:15:1F:F0:45:04:4B:F0:EF

            X509v3 Extended Key Usage: 
                TLS Web Client Authentication
            X509v3 Key Usage: 
                Digital Signature
    Signature Algorithm: sha256WithRSAEncryption
         2d:c9:56:e6:98:f7:cd:7b:00:31:20:c9:c6:f4:53:e3:d0:c4:
         7a:7c:09:4c:93:7e:b6:ba:db:4b:30:ac:9c:f4:ca:79:68:8e:
         dd:b0:0c:ea:1a:9d:7c:05:af:61:1c:9d:93:0f:f2:45:96:24:
         af:4e:d2:cd:d9:e7:a0:78:90:04:69:5b:97:d0:f7:16:c0:3c:
         e6:40:7b:26:5f:0d:fa:84:05:05:4c:e3:97:e3:42:61:b0:22:
         ab:42:6d:b3:24:e4:ac:1b:50:9f:22:c6:3e:6b:79:36:4f:e9:
         e5:47:b9:5c:16:db:df:ac:95:3d:93:9c:57:aa:fe:ed:f8:b9:
         c3:c9:2f:42:91:92:7c:84:d8:e5:db:c0:17:7d:97:88:06:d7:
         cc:02:2c:96:b5:94:87:30:31:4f:c5:1a:ab:e9:89:ff:31:cf:
         e6:fa:80:5c:cc:a0:ad:e7:df:71:64:dd:39:4c:19:82:b7:18:
         6e:5d:1d:2d:30:a1:0a:bf:9e:95:29:50:85:e8:d6:c9:6a:36:
         58:a0:a0:c6:9a:88:04:6a:ab:2c:cc:72:ff:be:46:b3:c6:7c:
         0e:3c:3c:30:5a:8a:c2:ed:d8:63:5e:6f:57:e5:56:69:28:d0:
         00:fc:23:59:f3:87:35:8b:7d:c7:7f:a4:0a:d1:44:6a:e1:4a:
         0c:f7:97:cc:71:69:d7:cd:9f:0b:8f:ee:8b:3f:47:43:e8:eb:
         04:e4:e6:5f:1d:47:70:03:9e:37:ae:c1:35:71:9c:23:fe:ea:
         d9:05:05:38:ad:49:e9:38:b0:f4:29:c8:02:b5:7d:a7:21:67:
         26:c1:47:02:d2:07:b0:8b:35:3f:5d:67:b7:60:06:e0:d5:f1:
         f6:18:86:db:f3:94:23:23:e2:5b:96:6a:9e:aa:94:dd:23:79:
         bd:16:4e:e3:2d:8c:ce:5b:10:b1:1d:18:36:3d:85:0c:e5:d7:
         b6:c3:4d:61:80:2a:53:b9:f1:55:b5:18:6b:c8:78:63:87:93:
         ee:98:d1:74:65:bd:85:85:49:4d:b4:5c:ac:88:b9:19:0c:b1:
         05:6e:8e:70:e4:08:02:d2:a4:74:4d:e5:c4:a2:80:d8:78:5d:
         d9:3b:5f:a9:77:c3:77:d7:8b:8a:7d:49:89:08:8b:1e:1e:45:
         37:e7:49:f5:aa:62:cf:55:ad:a1:24:7e:14:5c:c7:9c:d5:93:
         77:cf:6c:f5:47:ed:9e:a3:6c:35:a0:0a:26:31:b4:d6:f1:87:
         35:38:3e:14:39:55:b7:a3:ab:8f:a1:cb:39:61:05:8d:0c:49:
         ae:87:f5:8c:34:9c:ad:82:cd:7b:38:5a:21:c1:4b:6d:44:c4:
         18:ed:48:a6:f8:92:28:80
-----BEGIN CERTIFICATE-----
MIIFRzCCAy+gAwIBAgIQFQQVyptp0D3D6kRufC6gwzANBgkqhkiG9w0BAQsFADAP
MQ0wCwYDVQQDDARzYW55MB4XDTI0MDkxOTA4MjUwM1oXDTI3MDkwNDA4MjUwM1ow
EjEQMA4GA1UEAwwHY2xpZW50MzCCAiIwDQYJKoZIhvcNAQEBBQADggIPADCCAgoC
ggIBAMY+HkJJtUfEmpUnmKZFPZyZ5Vna6aTUzzQp+ENi8j15Z1TKZLiTjgDvp71g
jcPhq1ZLeggI32FuI9ra1pCysFOxObCXsu5yKr0rWKljlw8H4BCrNIjmxWFWjVV0
7rFyKkhkSYDFltLKcjORePdGv9q05NFmSm/k471aKMDTSk1Mtl2nNjNBFuHc8cdl
AB+7KQMVEBkm3E2HlybZsjRcqj7ATLUJonu/i7RbV+vZ5NAUjtGVUV4qTn0LHNK7
I1cF1BkSsZwZ7mOLQTLKpfF1iyhvWVoxFf5cFizQq6W0FnMghr+S7tiItQs20UM5
LYEHBwWK8ynJzPG29Wpux/1DDWHWQ65h8PKmo80cZ/SCeLE02OkR4EkxCNlpMH2A
Ja1gGvxi3wY29IFjYFqxDx7uwKZ9O3Q4guqw4BnMrSlzCf7It+/d8zK8rBeDArMk
3K6XB2E3/+/Tu3XSb9vrlBTLIFnxfU/9ReQLN/ahJnxzCUmrEDIVs7YvhLkyX6wh
PaXaGRzn4Qz5TJ1JFsKl2uDhW5IzHPRWnZnoBh1qC5gs6p2H8vUnacCRFgX+IRgP
ePnc2kg/5Au9IuLLDxgFIlfX3/Fjxz7LCJdlkoLcogBcZYaqlFgkowf6pAyiUCMq
Hy1YKGWbk+dX7QC+deQqDv54KLBGh0eT5D3iVjZvPu72AemlAgMBAAGjgZswgZgw
CQYDVR0TBAIwADAdBgNVHQ4EFgQU4D5p0aBv7fqT6Npt5wQmO2Fzq44wSgYDVR0j
BEMwQYAU0dkavFNMpCWnezVic7Dc8KA8IVChE6QRMA8xDTALBgNVBAMMBHNhbnmC
FBlv0nOLARz+zCJcCRUf8EUES/DvMBMGA1UdJQQMMAoGCCsGAQUFBwMCMAsGA1Ud
DwQEAwIHgDANBgkqhkiG9w0BAQsFAAOCAgEALclW5pj3zXsAMSDJxvRT49DEenwJ
TJN+trrbSzCsnPTKeWiO3bAM6hqdfAWvYRydkw/yRZYkr07SzdnnoHiQBGlbl9D3
FsA85kB7Jl8N+oQFBUzjl+NCYbAiq0JtsyTkrBtQnyLGPmt5Nk/p5Ue5XBbb36yV
PZOcV6r+7fi5w8kvQpGSfITY5dvAF32XiAbXzAIslrWUhzAxT8Uaq+mJ/zHP5vqA
XMygreffcWTdOUwZgrcYbl0dLTChCr+elSlQhejWyWo2WKCgxpqIBGqrLMxy/75G
s8Z8Djw8MFqKwu3YY15vV+VWaSjQAPwjWfOHNYt9x3+kCtFEauFKDPeXzHFp182f
C4/uiz9HQ+jrBOTmXx1HcAOeN67BNXGcI/7q2QUFOK1J6Tiw9CnIArV9pyFnJsFH
AtIHsIs1P11nt2AG4NXx9hiG2/OUIyPiW5ZqnqqU3SN5vRZO4y2MzlsQsR0YNj2F
DOXXtsNNYYAqU7nxVbUYa8h4Y4eT7pjRdGW9hYVJTbRcrIi5GQyxBW6OcOQIAtKk
dE3lxKKA2Hhd2TtfqXfDd9eLin1JiQiLHh5FN+dJ9apiz1WtoSR+FFzHnNWTd89s
9UftnqNsNaAKJjG01vGHNTg+FDlVt6Orj6HLOWEFjQxJrof1jDScrYLNezhaIcFL
bUTEGO1IpviSKIA=
-----END CERTIFICATE-----
